target datalayout = "e-m:e-p270:32:32-p271:32:32-p272:64:64-i64:64-i128:128-f80:128-n8:16:32:64-S128"
target triple = "x86_64-pc-linux-gnu"

%struct.jpeg_common_struct = type { ptr, ptr, ptr, ptr, i32, i32 }
%struct.jpeg_error_mgr = type { ptr, ptr, ptr, ptr, ptr, i32, %union.anon, i32, i64, ptr, i32, ptr, i32, i32 }
%union.anon = type { [8 x i32], [48 x i8] }
%struct.my_memory_mgr = type { %struct.jpeg_memory_mgr, [2 x ptr], [2 x ptr], ptr, ptr, i64, i32 }
%struct.jpeg_memory_mgr = type { ptr, ptr, ptr, ptr, ptr, ptr, ptr, ptr, ptr, ptr, ptr, i64, i64 }
%struct.large_pool_struct = type { ptr, i64, i64 }

; Function Attrs: nounwind uwtable
define internal i64 @round_up_pow2(i64 noundef %0, i64 noundef %1) #0 {
  %3 = alloca i64, align 8
  %4 = alloca i64, align 8
  store i64 %0, ptr %3, align 8, !tbaa !14
  store i64 %1, ptr %4, align 8, !tbaa !14
  %5 = load i64, ptr %3, align 8, !tbaa !14
  %6 = load i64, ptr %4, align 8, !tbaa !14
  %7 = add i64 %5, %6
  %8 = sub i64 %7, 1
  %9 = load i64, ptr %4, align 8, !tbaa !14
  %10 = sub i64 %9, 1
  %11 = xor i64 %10, -1
  %12 = and i64 %8, %11
  ret i64 %12
}

; Function Attrs: nounwind uwtable
define internal void @out_of_memory(ptr noundef %0, i32 noundef %1) #0 {
  %3 = alloca ptr, align 8
  %4 = alloca i32, align 4
  store ptr %0, ptr %3, align 8, !tbaa !3
  store i32 %1, ptr %4, align 4, !tbaa !40
  %5 = load ptr, ptr %3, align 8, !tbaa !3
  %6 = getelementptr inbounds nuw %struct.jpeg_common_struct, ptr %5, i32 0, i32 0
  %7 = load ptr, ptr %6, align 8, !tbaa !16
  %8 = getelementptr inbounds nuw %struct.jpeg_error_mgr, ptr %7, i32 0, i32 5
  store i32 54, ptr %8, align 8, !tbaa !17
  %9 = load i32, ptr %4, align 4, !tbaa !40
  %10 = load ptr, ptr %3, align 8, !tbaa !3
  %11 = getelementptr inbounds nuw %struct.jpeg_common_struct, ptr %10, i32 0, i32 0
  %12 = load ptr, ptr %11, align 8, !tbaa !16
  %13 = getelementptr inbounds nuw %struct.jpeg_error_mgr, ptr %12, i32 0, i32 6
  %14 = getelementptr inbounds [8 x i32], ptr %13, i64 0, i64 0
  store i32 %9, ptr %14, align 4, !tbaa !22
  %15 = load ptr, ptr %3, align 8, !tbaa !3
  %16 = getelementptr inbounds nuw %struct.jpeg_common_struct, ptr %15, i32 0, i32 0
  %17 = load ptr, ptr %16, align 8, !tbaa !16
  %18 = getelementptr inbounds nuw %struct.jpeg_error_mgr, ptr %17, i32 0, i32 0
  %19 = load ptr, ptr %18, align 8, !tbaa !20
  %20 = load ptr, ptr %3, align 8, !tbaa !3
  call void %19(ptr noundef %20)
  ret void
}

; Function Attrs: nounwind uwtable
define internal ptr @alloc_large(ptr noundef %0, i32 noundef %1, i64 noundef %2) #0 {
  %4 = alloca ptr, align 8
  %5 = alloca i32, align 4
  %6 = alloca i64, align 8
  %7 = alloca ptr, align 8
  %8 = alloca ptr, align 8
  %9 = alloca ptr, align 8
  store ptr %0, ptr %4, align 8, !tbaa !3
  store i32 %1, ptr %5, align 4, !tbaa !40
  store i64 %2, ptr %6, align 8, !tbaa !14
  call void @llvm.lifetime.start.p0(i64 8, ptr %7) #8
  %10 = load ptr, ptr %4, align 8, !tbaa !3
  %11 = getelementptr inbounds nuw %struct.jpeg_common_struct, ptr %10, i32 0, i32 1
  %12 = load ptr, ptr %11, align 8, !tbaa !8
  store ptr %12, ptr %7, align 8, !tbaa !21
  call void @llvm.lifetime.start.p0(i64 8, ptr %8) #8
  call void @llvm.lifetime.start.p0(i64 8, ptr %9) #8
  %13 = load i64, ptr %6, align 8, !tbaa !14
  %14 = icmp ugt i64 %13, 1000000000
  br i1 %14, label %15, label %17

15:                                               ; preds = %3
  %16 = load ptr, ptr %4, align 8, !tbaa !3
  call void @out_of_memory(ptr noundef %16, i32 noundef 8)
  br label %17

17:                                               ; preds = %15, %3
  %18 = load i64, ptr %6, align 8, !tbaa !14
  %19 = call i64 @round_up_pow2(i64 noundef %18, i64 noundef 32)
  store i64 %19, ptr %6, align 8, !tbaa !14
  %20 = load i64, ptr %6, align 8, !tbaa !14
  %21 = add i64 24, %20
  %22 = add i64 %21, 32
  %23 = sub i64 %22, 1
  %24 = icmp ugt i64 %23, 1000000000
  br i1 %24, label %25, label %27

25:                                               ; preds = %17
  %26 = load ptr, ptr %4, align 8, !tbaa !3
  call void @out_of_memory(ptr noundef %26, i32 noundef 3)
  br label %27

27:                                               ; preds = %25, %17
  %28 = load i32, ptr %5, align 4, !tbaa !40
  %29 = icmp slt i32 %28, 0
  br i1 %29, label %33, label %30

30:                                               ; preds = %27
  %31 = load i32, ptr %5, align 4, !tbaa !40
  %32 = icmp sge i32 %31, 2
  br i1 %32, label %33, label %50

33:                                               ; preds = %30, %27
  %34 = load ptr, ptr %4, align 8, !tbaa !3
  %35 = getelementptr inbounds nuw %struct.jpeg_common_struct, ptr %34, i32 0, i32 0
  %36 = load ptr, ptr %35, align 8, !tbaa !16
  %37 = getelementptr inbounds nuw %struct.jpeg_error_mgr, ptr %36, i32 0, i32 5
  store i32 14, ptr %37, align 8, !tbaa !17
  %38 = load i32, ptr %5, align 4, !tbaa !40
  %39 = load ptr, ptr %4, align 8, !tbaa !3
  %40 = getelementptr inbounds nuw %struct.jpeg_common_struct, ptr %39, i32 0, i32 0
  %41 = load ptr, ptr %40, align 8, !tbaa !16
  %42 = getelementptr inbounds nuw %struct.jpeg_error_mgr, ptr %41, i32 0, i32 6
  %43 = getelementptr inbounds [8 x i32], ptr %42, i64 0, i64 0
  store i32 %38, ptr %43, align 4, !tbaa !22
  %44 = load ptr, ptr %4, align 8, !tbaa !3
  %45 = getelementptr inbounds nuw %struct.jpeg_common_struct, ptr %44, i32 0, i32 0
  %46 = load ptr, ptr %45, align 8, !tbaa !16
  %47 = getelementptr inbounds nuw %struct.jpeg_error_mgr, ptr %46, i32 0, i32 0
  %48 = load ptr, ptr %47, align 8, !tbaa !20
  %49 = load ptr, ptr %4, align 8, !tbaa !3
  call void %48(ptr noundef %49)
  br label %50

50:                                               ; preds = %33, %30
  %51 = load ptr, ptr %4, align 8, !tbaa !3
  %52 = load i64, ptr %6, align 8, !tbaa !14
  %53 = add i64 %52, 24
  %54 = add i64 %53, 32
  %55 = sub i64 %54, 1
  %56 = call ptr @jpeg_get_large(ptr noundef %51, i64 noundef %55)
  store ptr %56, ptr %8, align 8, !tbaa !43
  %57 = load ptr, ptr %8, align 8, !tbaa !43
  %58 = icmp eq ptr %57, null
  br i1 %58, label %59, label %61

59:                                               ; preds = %50
  %60 = load ptr, ptr %4, align 8, !tbaa !3
  call void @out_of_memory(ptr noundef %60, i32 noundef 4)
  br label %61

61:                                               ; preds = %59, %50
  %62 = load i64, ptr %6, align 8, !tbaa !14
  %63 = add i64 %62, 24
  %64 = add i64 %63, 32
  %65 = sub i64 %64, 1
  %66 = load ptr, ptr %7, align 8, !tbaa !21
  %67 = getelementptr inbounds nuw %struct.my_memory_mgr, ptr %66, i32 0, i32 5
  %68 = load i64, ptr %67, align 8, !tbaa !49
  %69 = add i64 %68, %65
  store i64 %69, ptr %67, align 8, !tbaa !49
  %70 = load ptr, ptr %7, align 8, !tbaa !21
  %71 = getelementptr inbounds nuw %struct.my_memory_mgr, ptr %70, i32 0, i32 2
  %72 = load i32, ptr %5, align 4, !tbaa !40
  %73 = sext i32 %72 to i64
  %74 = getelementptr inbounds [2 x ptr], ptr %71, i64 0, i64 %73
  %75 = load ptr, ptr %74, align 8, !tbaa !43
  %76 = load ptr, ptr %8, align 8, !tbaa !43
  %77 = getelementptr inbounds nuw %struct.large_pool_struct, ptr %76, i32 0, i32 0
  store ptr %75, ptr %77, align 8, !tbaa !57
  %78 = load i64, ptr %6, align 8, !tbaa !14
  %79 = load ptr, ptr %8, align 8, !tbaa !43
  %80 = getelementptr inbounds nuw %struct.large_pool_struct, ptr %79, i32 0, i32 1
  store i64 %78, ptr %80, align 8, !tbaa !59
  %81 = load ptr, ptr %8, align 8, !tbaa !43
  %82 = getelementptr inbounds nuw %struct.large_pool_struct, ptr %81, i32 0, i32 2
  store i64 0, ptr %82, align 8, !tbaa !60
  %83 = load ptr, ptr %8, align 8, !tbaa !43
  %84 = load ptr, ptr %7, align 8, !tbaa !21
  %85 = getelementptr inbounds nuw %struct.my_memory_mgr, ptr %84, i32 0, i32 2
  %86 = load i32, ptr %5, align 4, !tbaa !40
  %87 = sext i32 %86 to i64
  %88 = getelementptr inbounds [2 x ptr], ptr %85, i64 0, i64 %87
  store ptr %83, ptr %88, align 8, !tbaa !43
  %89 = load ptr, ptr %8, align 8, !tbaa !43
  store ptr %89, ptr %9, align 8, !tbaa !55
  %90 = load ptr, ptr %9, align 8, !tbaa !55
  %91 = getelementptr inbounds nuw i8, ptr %90, i64 24
  store ptr %91, ptr %9, align 8, !tbaa !55
  %92 = load ptr, ptr %9, align 8, !tbaa !55
  %93 = ptrtoint ptr %92 to i64
  %94 = urem i64 %93, 32
  %95 = icmp ne i64 %94, 0
  br i1 %95, label %96, label %103

96:                                               ; preds = %61
  %97 = load ptr, ptr %9, align 8, !tbaa !55
  %98 = ptrtoint ptr %97 to i64
  %99 = urem i64 %98, 32
  %100 = sub i64 32, %99
  %101 = load ptr, ptr %9, align 8, !tbaa !55
  %102 = getelementptr inbounds nuw i8, ptr %101, i64 %100
  store ptr %102, ptr %9, align 8, !tbaa !55
  br label %103

103:                                              ; preds = %96, %61
  %104 = load ptr, ptr %9, align 8, !tbaa !55
  call void @llvm.lifetime.end.p0(i64 8, ptr %9) #8
  call void @llvm.lifetime.end.p0(i64 8, ptr %8) #8
  call void @llvm.lifetime.end.p0(i64 8, ptr %7) #8
  ret ptr %104
}