; Function Attrs: nounwind uwtable
define internal ptr @alloc_large(ptr noundef %0, i32 noundef %1, i64 noundef %2) #0 {
  %4 = getelementptr inbounds nuw i8, ptr %0, i64 8
  %5 = load ptr, ptr %4, align 8, !tbaa !3
  %6 = icmp ugt i64 %2, 1000000000
  br i1 %6, label %7, label %13

7:                                                ; preds = %3
  %8 = load ptr, ptr %0, align 8, !tbaa !14
  %9 = getelementptr inbounds nuw i8, ptr %8, i64 40
  store i32 54, ptr %9, align 8, !tbaa !15
  %10 = getelementptr inbounds nuw i8, ptr %8, i64 44
  store i32 8, ptr %10, align 4, !tbaa !18
  %11 = load ptr, ptr %0, align 8, !tbaa !14
  %12 = load ptr, ptr %11, align 8, !tbaa !19
  tail call void %12(ptr noundef nonnull %0) #9
  br label %13

13:                                               ; preds = %7, %3
  %14 = add i64 %2, 31
  %15 = and i64 %14, -32
  %16 = add i64 %15, 55
  %17 = icmp ugt i64 %16, 1000000000
  br i1 %17, label %18, label %24

18:                                               ; preds = %13
  %19 = load ptr, ptr %0, align 8, !tbaa !14
  %20 = getelementptr inbounds nuw i8, ptr %19, i64 40
  store i32 54, ptr %20, align 8, !tbaa !15
  %21 = getelementptr inbounds nuw i8, ptr %19, i64 44
  store i32 3, ptr %21, align 4, !tbaa !18
  %22 = load ptr, ptr %0, align 8, !tbaa !14
  %23 = load ptr, ptr %22, align 8, !tbaa !19
  tail call void %23(ptr noundef nonnull %0) #9
  br label %24

24:                                               ; preds = %18, %13
  %or.cond = icmp ugt i32 %1, 1
  br i1 %or.cond, label %25, label %31

25:                                               ; preds = %24
  %26 = load ptr, ptr %0, align 8, !tbaa !14
  %27 = getelementptr inbounds nuw i8, ptr %26, i64 40
  store i32 14, ptr %27, align 8, !tbaa !15
  %28 = getelementptr inbounds nuw i8, ptr %26, i64 44
  store i32 %1, ptr %28, align 4, !tbaa !18
  %29 = load ptr, ptr %0, align 8, !tbaa !14
  %30 = load ptr, ptr %29, align 8, !tbaa !19
  tail call void %30(ptr noundef nonnull %0) #9
  br label %31

31:                                               ; preds = %24, %25
  %32 = tail call ptr @jpeg_get_large(ptr noundef nonnull %0, i64 noundef %16) #9
  %33 = icmp eq ptr %32, null
  br i1 %33, label %34, label %40

34:                                               ; preds = %31
  %35 = load ptr, ptr %0, align 8, !tbaa !14
  %36 = getelementptr inbounds nuw i8, ptr %35, i64 40
  store i32 54, ptr %36, align 8, !tbaa !15
  %37 = getelementptr inbounds nuw i8, ptr %35, i64 44
  store i32 4, ptr %37, align 4, !tbaa !18
  %38 = load ptr, ptr %0, align 8, !tbaa !14
  %39 = load ptr, ptr %38, align 8, !tbaa !19
  tail call void %39(ptr noundef nonnull %0) #9
  br label %40

40:                                               ; preds = %34, %31
  %41 = getelementptr inbounds nuw i8, ptr %5, i64 152
  %42 = load i64, ptr %41, align 8, !tbaa !37
  %43 = add i64 %42, %16
  store i64 %43, ptr %41, align 8, !tbaa !37
  %44 = getelementptr inbounds nuw i8, ptr %5, i64 120
  %45 = sext i32 %1 to i64
  %46 = getelementptr inbounds [2 x ptr], ptr %44, i64 0, i64 %45
  %47 = load ptr, ptr %46, align 8, !tbaa !46
  store ptr %47, ptr %32, align 8, !tbaa !48
  %48 = getelementptr inbounds nuw i8, ptr %32, i64 8
  store i64 %15, ptr %48, align 8, !tbaa !50
  %49 = getelementptr inbounds nuw i8, ptr %32, i64 16
  store i64 0, ptr %49, align 8, !tbaa !51
  store ptr %32, ptr %46, align 8, !tbaa !46
  %50 = getelementptr inbounds nuw i8, ptr %32, i64 24
  %51 = ptrtoint ptr %50 to i64
  %52 = and i64 %51, 31
  %.not = icmp eq i64 %52, 0
  %53 = sub nuw nsw i64 32, %52
  %.0.idx = select i1 %.not, i64 0, i64 %53
  %.0 = getelementptr inbounds nuw i8, ptr %50, i64 %.0.idx
  ret ptr %.0
}